target datalayout = "e-m:e-p270:32:32-p271:32:32-p272:64:64-i64:64-i128:128-f80:128-n8:16:32:64-S128"
target triple = "x86_64-pc-linux-gnu"

%struct.H5G_loc_t = type { ptr, ptr }
%struct.H5G_name_t = type { ptr, ptr, i32 }

@.str = private unnamed_addr constant [100 x i8] c"generated/home/dtcxzyw/WorkSpace/Projects/compilers/llvm-opt-benchmark/bench/hdf5/hdf5/src/H5Lint.c\00", align 1
@H5E_LINK_g = external global i64, align 8
@H5E_NOTFOUND_g = external global i64, align 8
@.str.11 = private unnamed_addr constant [19 x i8] c"name doesn't exist\00", align 1
@H5E_CANTDELETE_g = external global i64, align 8
@.str.51 = private unnamed_addr constant [20 x i8] c"group doesn't exist\00", align 1
@__func__.H5L__delete_cb = private unnamed_addr constant [15 x i8] c"H5L__delete_cb\00", align 1
@.str.53 = private unnamed_addr constant [71 x i8] c"callback link pointer is NULL (specified link may be '.' or not exist)\00", align 1
@.str.54 = private unnamed_addr constant [33 x i8] c"unable to remove link from group\00", align 1

; Function Attrs: nounwind uwtable
define internal i32 @H5L__delete_cb(ptr noundef %0, ptr noundef %1, ptr noundef %2, ptr noundef %3, ptr noundef %4, ptr noundef %5) #0 {
  %7 = alloca ptr, align 8
  %8 = alloca ptr, align 8
  %9 = alloca ptr, align 8
  %10 = alloca ptr, align 8
  %11 = alloca ptr, align 8
  %12 = alloca ptr, align 8
  %13 = alloca i32, align 4
  %14 = alloca i8, align 1
  store ptr %0, ptr %7, align 8
  store ptr %1, ptr %8, align 8
  store ptr %2, ptr %9, align 8
  store ptr %3, ptr %10, align 8
  store ptr %4, ptr %11, align 8
  store ptr %5, ptr %12, align 8
  store i32 0, ptr %13, align 4
  store i8 0, ptr %14, align 1
  %15 = load ptr, ptr %7, align 8
  %16 = icmp eq ptr %15, null
  br i1 %16, label %17, label %32

17:                                               ; preds = %6
  br label %18

18:                                               ; preds = %17
  br label %19

19:                                               ; preds = %18
  br label %20

20:                                               ; preds = %19
  %21 = load i64, ptr @H5E_LINK_g, align 8
  %22 = load i64, ptr @H5E_NOTFOUND_g, align 8
  %23 = call i32 (ptr, ptr, i32, i64, i64, ptr, ...) @H5E_printf_stack(ptr noundef @.str, ptr noundef @__func__.H5L__delete_cb, i32 noundef 1141, i64 noundef %21, i64 noundef %22, ptr noundef @.str.51)
  br label %24

24:                                               ; preds = %20
  store i8 1, ptr %14, align 1
  %25 = load i8, ptr %14, align 1
  %26 = trunc i8 %25 to i1
  %27 = zext i1 %26 to i8
  store i8 %27, ptr %14, align 1
  br label %28

28:                                               ; preds = %24
  br label %29

29:                                               ; preds = %28
  store i32 -1, ptr %13, align 4
  br label %96

30:                                               ; No predecessors!
  br label %31

31:                                               ; preds = %30
  br label %32

32:                                               ; preds = %31, %6
  %33 = load ptr, ptr %8, align 8
  %34 = icmp eq ptr %33, null
  br i1 %34, label %35, label %50

35:                                               ; preds = %32
  br label %36

36:                                               ; preds = %35
  br label %37

37:                                               ; preds = %36
  br label %38

38:                                               ; preds = %37
  %39 = load i64, ptr @H5E_LINK_g, align 8
  %40 = load i64, ptr @H5E_NOTFOUND_g, align 8
  %41 = call i32 (ptr, ptr, i32, i64, i64, ptr, ...) @H5E_printf_stack(ptr noundef @.str, ptr noundef @__func__.H5L__delete_cb, i32 noundef 1145, i64 noundef %39, i64 noundef %40, ptr noundef @.str.11)
  br label %42

42:                                               ; preds = %38
  store i8 1, ptr %14, align 1
  %43 = load i8, ptr %14, align 1
  %44 = trunc i8 %43 to i1
  %45 = zext i1 %44 to i8
  store i8 %45, ptr %14, align 1
  br label %46

46:                                               ; preds = %42
  br label %47

47:                                               ; preds = %46
  store i32 -1, ptr %13, align 4
  br label %96

48:                                               ; No predecessors!
  br label %49

49:                                               ; preds = %48
  br label %50

50:                                               ; preds = %49, %32
  %51 = load ptr, ptr %9, align 8
  %52 = icmp eq ptr %51, null
  br i1 %52, label %53, label %68

53:                                               ; preds = %50
  br label %54

54:                                               ; preds = %53
  br label %55

55:                                               ; preds = %54
  br label %56

56:                                               ; preds = %55
  %57 = load i64, ptr @H5E_LINK_g, align 8
  %58 = load i64, ptr @H5E_CANTDELETE_g, align 8
  %59 = call i32 (ptr, ptr, i32, i64, i64, ptr, ...) @H5E_printf_stack(ptr noundef @.str, ptr noundef @__func__.H5L__delete_cb, i32 noundef 1152, i64 noundef %57, i64 noundef %58, ptr noundef @.str.53)
  br label %60

60:                                               ; preds = %56
  store i8 1, ptr %14, align 1
  %61 = load i8, ptr %14, align 1
  %62 = trunc i8 %61 to i1
  %63 = zext i1 %62 to i8
  store i8 %63, ptr %14, align 1
  br label %64

64:                                               ; preds = %60
  br label %65

65:                                               ; preds = %64
  store i32 -1, ptr %13, align 4
  br label %96

66:                                               ; No predecessors!
  br label %67

67:                                               ; preds = %66
  br label %68

68:                                               ; preds = %67, %50
  %69 = load ptr, ptr %7, align 8
  %70 = getelementptr inbounds %struct.H5G_loc_t, ptr %69, i32 0, i32 0
  %71 = load ptr, ptr %70, align 8
  %72 = load ptr, ptr %7, align 8
  %73 = getelementptr inbounds %struct.H5G_loc_t, ptr %72, i32 0, i32 1
  %74 = load ptr, ptr %73, align 8
  %75 = getelementptr inbounds %struct.H5G_name_t, ptr %74, i32 0, i32 0
  %76 = load ptr, ptr %75, align 8
  %77 = load ptr, ptr %8, align 8
  %78 = call i32 @H5G_obj_remove(ptr noundef %71, ptr noundef %76, ptr noundef %77)
  %79 = icmp slt i32 %78, 0
  br i1 %79, label %80, label %95

80:                                               ; preds = %68
  br label %81

81:                                               ; preds = %80
  br label %82

82:                                               ; preds = %81
  br label %83

83:                                               ; preds = %82
  %84 = load i64, ptr @H5E_LINK_g, align 8
  %85 = load i64, ptr @H5E_CANTDELETE_g, align 8
  %86 = call i32 (ptr, ptr, i32, i64, i64, ptr, ...) @H5E_printf_stack(ptr noundef @.str, ptr noundef @__func__.H5L__delete_cb, i32 noundef 1156, i64 noundef %84, i64 noundef %85, ptr noundef @.str.54)
  br label %87

87:                                               ; preds = %83
  store i8 1, ptr %14, align 1
  %88 = load i8, ptr %14, align 1
  %89 = trunc i8 %88 to i1
  %90 = zext i1 %89 to i8
  store i8 %90, ptr %14, align 1
  br label %91

91:                                               ; preds = %87
  br label %92

92:                                               ; preds = %91
  store i32 -1, ptr %13, align 4
  br label %96

93:                                               ; No predecessors!
  br label %94

94:                                               ; preds = %93
  br label %95

95:                                               ; preds = %94, %68
  br label %96

96:                                               ; preds = %95, %92, %65, %47, %29
  %97 = load ptr, ptr %12, align 8
  store i32 0, ptr %97, align 4
  %98 = load i32, ptr %13, align 4
  ret i32 %98
}