; Function Attrs: nounwind uwtable
define internal range(i32 -1, 1) i32 @H5L__delete_cb(ptr noundef readonly %0, ptr noundef %1, ptr noundef readnone %2, ptr nocapture readnone %3, ptr nocapture readnone %4, ptr nocapture noundef writeonly %5) #0 {
  %7 = icmp eq ptr %0, null
  br i1 %7, label %8, label %12

8:                                                ; preds = %6
  %9 = load i64, ptr @H5E_LINK_g, align 8
  %10 = load i64, ptr @H5E_NOTFOUND_g, align 8
  %11 = tail call i32 (ptr, ptr, i32, i64, i64, ptr, ...) @H5E_printf_stack(ptr noundef nonnull @.str, ptr noundef nonnull @__func__.H5L__delete_cb, i32 noundef 1141, i64 noundef %9, i64 noundef %10, ptr noundef nonnull @.str.51) #10
  br label %35

12:                                               ; preds = %6
  %13 = icmp eq ptr %1, null
  br i1 %13, label %14, label %18

14:                                               ; preds = %12
  %15 = load i64, ptr @H5E_LINK_g, align 8
  %16 = load i64, ptr @H5E_NOTFOUND_g, align 8
  %17 = tail call i32 (ptr, ptr, i32, i64, i64, ptr, ...) @H5E_printf_stack(ptr noundef nonnull @.str, ptr noundef nonnull @__func__.H5L__delete_cb, i32 noundef 1145, i64 noundef %15, i64 noundef %16, ptr noundef nonnull @.str.11) #10
  br label %35

18:                                               ; preds = %12
  %19 = icmp eq ptr %2, null
  br i1 %19, label %20, label %24

20:                                               ; preds = %18
  %21 = load i64, ptr @H5E_LINK_g, align 8
  %22 = load i64, ptr @H5E_CANTDELETE_g, align 8
  %23 = tail call i32 (ptr, ptr, i32, i64, i64, ptr, ...) @H5E_printf_stack(ptr noundef nonnull @.str, ptr noundef nonnull @__func__.H5L__delete_cb, i32 noundef 1152, i64 noundef %21, i64 noundef %22, ptr noundef nonnull @.str.53) #10
  br label %35

24:                                               ; preds = %18
  %25 = load ptr, ptr %0, align 8
  %26 = getelementptr inbounds i8, ptr %0, i64 8
  %27 = load ptr, ptr %26, align 8
  %28 = load ptr, ptr %27, align 8
  %29 = tail call i32 @H5G_obj_remove(ptr noundef %25, ptr noundef %28, ptr noundef nonnull %1) #10
  %30 = icmp slt i32 %29, 0
  br i1 %30, label %31, label %35

31:                                               ; preds = %24
  %32 = load i64, ptr @H5E_LINK_g, align 8
  %33 = load i64, ptr @H5E_CANTDELETE_g, align 8
  %34 = tail call i32 (ptr, ptr, i32, i64, i64, ptr, ...) @H5E_printf_stack(ptr noundef nonnull @.str, ptr noundef nonnull @__func__.H5L__delete_cb, i32 noundef 1156, i64 noundef %32, i64 noundef %33, ptr noundef nonnull @.str.54) #10
  br label %35

35:                                               ; preds = %24, %31, %20, %14, %8
  %.0 = phi i32 [ -1, %8 ], [ -1, %14 ], [ -1, %20 ], [ -1, %31 ], [ 0, %24 ]
  store i32 0, ptr %5, align 4
  ret i32 %.0
}